target datalayout = "e-m:e-p270:32:32-p271:32:32-p272:64:64-i64:64-i128:128-f80:128-n8:16:32:64-S128"
target triple = "x86_64-pc-linux-gnu"

%struct.RTree = type { ptr, %struct.split_q_s }
%struct.split_q_s = type { [65 x %struct.Branch], %struct.Rect, i64, [1 x %struct.PartitionVars] }
%struct.Branch = type { %struct.Rect, ptr }
%struct.Rect = type { [4 x i32] }
%struct.PartitionVars = type { [65 x i32], [65 x i32], [2 x i32], [2 x %struct.Rect], [2 x i64] }
%struct.Node = type { i32, i32, [64 x %struct.Branch] }

; Function Attrs: nounwind uwtable
define ptr @RTreeNewIndex() #0 {
  %1 = alloca ptr, align 8
  call void @llvm.lifetime.start.p0(i64 8, ptr %1) #6
  %2 = call ptr @RTreeNewNode()
  store ptr %2, ptr %1, align 8, !tbaa !23
  %3 = load ptr, ptr %1, align 8, !tbaa !23
  %4 = getelementptr inbounds nuw %struct.Node, ptr %3, i32 0, i32 1
  store i32 0, ptr %4, align 4, !tbaa !24
  %5 = load ptr, ptr %1, align 8, !tbaa !23
  call void @llvm.lifetime.end.p0(i64 8, ptr %1) #6
  ret ptr %5
}

; Function Attrs: nounwind uwtable
define ptr @RTreeOpen() #0 {
  %1 = alloca ptr, align 8
  call void @llvm.lifetime.start.p0(i64 8, ptr %1) #6
  %2 = call noalias ptr @calloc(i64 noundef 1, i64 noundef 2168) #7
  store ptr %2, ptr %1, align 8, !tbaa !15
  %3 = icmp ne ptr %2, null
  br i1 %3, label %4, label %8

4:                                                ; preds = %0
  %5 = call ptr @RTreeNewIndex()
  %6 = load ptr, ptr %1, align 8, !tbaa !15
  %7 = getelementptr inbounds nuw %struct.RTree, ptr %6, i32 0, i32 0
  store ptr %5, ptr %7, align 8, !tbaa !17
  br label %8

8:                                                ; preds = %4, %0
  %9 = load ptr, ptr %1, align 8, !tbaa !15
  call void @llvm.lifetime.end.p0(i64 8, ptr %1) #6
  ret ptr %9
}