; Function Attrs: nounwind uwtable
define noalias noundef ptr @RTreeOpen() local_unnamed_addr #3 {
  %1 = tail call noalias dereferenceable_or_null(2168) ptr @calloc(i64 noundef 1, i64 noundef 2168) #7
  %.not = icmp eq ptr %1, null
  br i1 %.not, label %5, label %2

2:                                                ; preds = %0
  %3 = tail call ptr @RTreeNewNode() #8
  %4 = getelementptr inbounds nuw i8, ptr %3, i64 4
  store i32 0, ptr %4, align 4, !tbaa !13
  store ptr %3, ptr %1, align 8, !tbaa !16
  br label %5

5:                                                ; preds = %2, %0
  ret ptr %1
}